target datalayout = "e-m:e-p270:32:32-p271:32:32-p272:64:64-i64:64-i128:128-f80:128-n8:16:32:64-S128"
target triple = "x86_64-pc-linux-gnu"

%struct.AVRational = type { i32, i32 }
%struct.AVFormatContext = type { ptr, ptr, ptr, ptr, ptr, i32, i32, ptr, i32, ptr, i32, ptr, ptr, i64, i64, i64, i32, i32, i32, i64, i64, ptr, i32, i32, ptr, i32, i32, i32, i32, ptr, i64, i32, i32, %struct.AVIOInterruptCB, i32, i32, i32, i32, i64, i32, i32, i32, i32, i32, i32, i32, i32, i32, i32, i32, i32, i64, i32, i32, i32, i32, i32, ptr, ptr, ptr, ptr, i32, ptr, ptr, ptr, ptr, i32, ptr, ptr, i64, ptr, ptr, ptr, i64 }
%struct.AVIOInterruptCB = type { ptr, ptr }
%struct.AVIContext = type { ptr, ptr, i64, i64, i64, i64, i32, i32, i32, i32, i32 }
%struct.AVStream = type { ptr, i32, i32, ptr, ptr, %struct.AVRational, i64, i64, i64, i32, i32, %struct.AVRational, ptr, %struct.AVRational, %struct.AVPacket, i32, %struct.AVRational, i32 }
%struct.AVPacket = type { ptr, i64, i64, ptr, i32, i32, i32, ptr, i32, i64, i64, ptr, ptr, %struct.AVRational }
%struct.AVCodecParameters = type { i32, i32, i32, ptr, i32, ptr, i32, i32, i64, i32, i32, i32, i32, i32, i32, %struct.AVRational, %struct.AVRational, i32, i32, i32, i32, i32, i32, i32, %struct.AVChannelLayout, i32, i32, i32, i32, i32, i32 }
%struct.AVChannelLayout = type { i32, i32, %union.anon.0, ptr }
%union.anon.0 = type { i64 }
%struct.AVIStream = type { i64, i64, i32, i32, i32, i32, i64, %struct.AVIIndex, i64, [256 x i32], [256 x i32], i64 }
%struct.AVIIndex = type { i64, i64, i32, i32, i32, ptr }

@.str.47 = private unnamed_addr constant [5 x i8] c"indx\00", align 1
@.str.48 = private unnamed_addr constant [61 x i8] c"OpenDML index duration for audio packets with partial frames\00", align 1

; Function Attrs: alwaysinline nounwind uwtable
define internal void @ffio_wfourcc(ptr noundef %0, ptr noundef %1) #4 {
  %3 = alloca ptr, align 8
  %4 = alloca ptr, align 8
  store ptr %0, ptr %3, align 8, !tbaa !29
  store ptr %1, ptr %4, align 8, !tbaa !94
  %5 = load ptr, ptr %3, align 8, !tbaa !29
  %6 = load ptr, ptr %4, align 8, !tbaa !94
  %7 = getelementptr inbounds i8, ptr %6, i64 0
  %8 = load i8, ptr %7, align 1, !tbaa !108
  %9 = zext i8 %8 to i32
  %10 = load ptr, ptr %4, align 8, !tbaa !94
  %11 = getelementptr inbounds i8, ptr %10, i64 1
  %12 = load i8, ptr %11, align 1, !tbaa !108
  %13 = zext i8 %12 to i32
  %14 = shl i32 %13, 8
  %15 = or i32 %9, %14
  %16 = load ptr, ptr %4, align 8, !tbaa !94
  %17 = getelementptr inbounds i8, ptr %16, i64 2
  %18 = load i8, ptr %17, align 1, !tbaa !108
  %19 = zext i8 %18 to i32
  %20 = shl i32 %19, 16
  %21 = or i32 %15, %20
  %22 = load ptr, ptr %4, align 8, !tbaa !94
  %23 = getelementptr inbounds i8, ptr %22, i64 3
  %24 = load i8, ptr %23, align 1, !tbaa !108
  %25 = zext i8 %24 to i32
  %26 = shl i32 %25, 24
  %27 = or i32 %21, %26
  call void @avio_wl32(ptr noundef %5, i32 noundef %27)
  ret void
}

; Function Attrs: alwaysinline nounwind uwtable
define internal i64 @avio_tell(ptr noundef %0) #4 {
  %2 = alloca ptr, align 8
  store ptr %0, ptr %2, align 8, !tbaa !29
  %3 = load ptr, ptr %2, align 8, !tbaa !29
  %4 = call i64 @avio_seek(ptr noundef %3, i64 noundef 0, i32 noundef 1)
  ret i64 %4
}

; Function Attrs: nounwind uwtable
define internal void @update_odml_entry(ptr noundef %0, i32 noundef %1, i64 noundef %2, i32 noundef %3) #0 {
  %5 = alloca ptr, align 8
  %6 = alloca i32, align 4
  %7 = alloca i64, align 8
  %8 = alloca i32, align 4
  %9 = alloca ptr, align 8
  %10 = alloca ptr, align 8
  %11 = alloca ptr, align 8
  %12 = alloca i64, align 8
  %13 = alloca i32, align 4
  %14 = alloca i32, align 4
  %15 = alloca i32, align 4
  %16 = alloca i32, align 4
  store ptr %0, ptr %5, align 8, !tbaa !4
  store i32 %1, ptr %6, align 4, !tbaa !43
  store i64 %2, ptr %7, align 8, !tbaa !30
  store i32 %3, ptr %8, align 4, !tbaa !43
  call void @llvm.lifetime.start.p0(i64 8, ptr %9) #12
  %17 = load ptr, ptr %5, align 8, !tbaa !4
  %18 = getelementptr inbounds nuw %struct.AVFormatContext, ptr %17, i32 0, i32 4
  %19 = load ptr, ptr %18, align 8, !tbaa !28
  store ptr %19, ptr %9, align 8, !tbaa !29
  call void @llvm.lifetime.start.p0(i64 8, ptr %10) #12
  %20 = load ptr, ptr %5, align 8, !tbaa !4
  %21 = getelementptr inbounds nuw %struct.AVFormatContext, ptr %20, i32 0, i32 3
  %22 = load ptr, ptr %21, align 8, !tbaa !9
  store ptr %22, ptr %10, align 8, !tbaa !26
  call void @llvm.lifetime.start.p0(i64 8, ptr %11) #12
  %23 = load ptr, ptr %5, align 8, !tbaa !4
  %24 = getelementptr inbounds nuw %struct.AVFormatContext, ptr %23, i32 0, i32 7
  %25 = load ptr, ptr %24, align 8, !tbaa !44
  %26 = load i32, ptr %6, align 4, !tbaa !43
  %27 = sext i32 %26 to i64
  %28 = getelementptr inbounds ptr, ptr %25, i64 %27
  %29 = load ptr, ptr %28, align 8, !tbaa !31
  %30 = getelementptr inbounds nuw %struct.AVStream, ptr %29, i32 0, i32 4
  %31 = load ptr, ptr %30, align 8, !tbaa !45
  store ptr %31, ptr %11, align 8, !tbaa !77
  call void @llvm.lifetime.start.p0(i64 8, ptr %12) #12
  call void @llvm.lifetime.start.p0(i64 4, ptr %13) #12
  call void @llvm.lifetime.start.p0(i64 4, ptr %14) #12
  call void @llvm.lifetime.start.p0(i64 4, ptr %15) #12
  %32 = load ptr, ptr %9, align 8, !tbaa !29
  %33 = call i64 @avio_tell(ptr noundef %32)
  store i64 %33, ptr %12, align 8, !tbaa !30
  %34 = load ptr, ptr %9, align 8, !tbaa !29
  %35 = load ptr, ptr %11, align 8, !tbaa !77
  %36 = getelementptr inbounds nuw %struct.AVIStream, ptr %35, i32 0, i32 7
  %37 = getelementptr inbounds nuw %struct.AVIIndex, ptr %36, i32 0, i32 0
  %38 = load i64, ptr %37, align 8, !tbaa !126
  %39 = sub nsw i64 %38, 8
  %40 = call i64 @avio_seek(ptr noundef %34, i64 noundef %39, i32 noundef 0)
  %41 = load ptr, ptr %9, align 8, !tbaa !29
  call void @ffio_wfourcc(ptr noundef %41, ptr noundef @.str.47)
  %42 = load ptr, ptr %9, align 8, !tbaa !29
  %43 = call i64 @avio_skip(ptr noundef %42, i64 noundef 8)
  %44 = load ptr, ptr %9, align 8, !tbaa !29
  %45 = load ptr, ptr %10, align 8, !tbaa !26
  %46 = getelementptr inbounds nuw %struct.AVIContext, ptr %45, i32 0, i32 6
  %47 = load i32, ptr %46, align 8, !tbaa !54
  %48 = load ptr, ptr %11, align 8, !tbaa !77
  %49 = getelementptr inbounds nuw %struct.AVIStream, ptr %48, i32 0, i32 7
  %50 = getelementptr inbounds nuw %struct.AVIIndex, ptr %49, i32 0, i32 4
  %51 = load i32, ptr %50, align 8, !tbaa !143
  %52 = sub nsw i32 %47, %51
  call void @avio_wl32(ptr noundef %44, i32 noundef %52)
  %53 = load ptr, ptr %9, align 8, !tbaa !29
  %54 = load ptr, ptr %10, align 8, !tbaa !26
  %55 = getelementptr inbounds nuw %struct.AVIContext, ptr %54, i32 0, i32 6
  %56 = load i32, ptr %55, align 8, !tbaa !54
  %57 = load ptr, ptr %11, align 8, !tbaa !77
  %58 = getelementptr inbounds nuw %struct.AVIStream, ptr %57, i32 0, i32 7
  %59 = getelementptr inbounds nuw %struct.AVIIndex, ptr %58, i32 0, i32 4
  %60 = load i32, ptr %59, align 8, !tbaa !143
  %61 = sub nsw i32 %56, %60
  %62 = mul nsw i32 16, %61
  %63 = sext i32 %62 to i64
  %64 = call i64 @avio_skip(ptr noundef %53, i64 noundef %63)
  %65 = load ptr, ptr %9, align 8, !tbaa !29
  %66 = load i64, ptr %7, align 8, !tbaa !30
  call void @avio_wl64(ptr noundef %65, i64 noundef %66)
  %67 = load ptr, ptr %9, align 8, !tbaa !29
  %68 = load i32, ptr %8, align 4, !tbaa !43
  call void @avio_wl32(ptr noundef %67, i32 noundef %68)
  %69 = load ptr, ptr %5, align 8, !tbaa !4
  %70 = getelementptr inbounds nuw %struct.AVFormatContext, ptr %69, i32 0, i32 7
  %71 = load ptr, ptr %70, align 8, !tbaa !44
  %72 = load i32, ptr %6, align 4, !tbaa !43
  %73 = sext i32 %72 to i64
  %74 = getelementptr inbounds ptr, ptr %71, i64 %73
  %75 = load ptr, ptr %74, align 8, !tbaa !31
  call void @ff_parse_specific_params(ptr noundef %75, ptr noundef %13, ptr noundef %14, ptr noundef %15)
  %76 = load ptr, ptr %5, align 8, !tbaa !4
  %77 = getelementptr inbounds nuw %struct.AVFormatContext, ptr %76, i32 0, i32 7
  %78 = load ptr, ptr %77, align 8, !tbaa !44
  %79 = load i32, ptr %6, align 4, !tbaa !43
  %80 = sext i32 %79 to i64
  %81 = getelementptr inbounds ptr, ptr %78, i64 %80
  %82 = load ptr, ptr %81, align 8, !tbaa !31
  %83 = getelementptr inbounds nuw %struct.AVStream, ptr %82, i32 0, i32 3
  %84 = load ptr, ptr %83, align 8, !tbaa !56
  %85 = getelementptr inbounds nuw %struct.AVCodecParameters, ptr %84, i32 0, i32 0
  %86 = load i32, ptr %85, align 8, !tbaa !63
  %87 = icmp eq i32 %86, 1
  br i1 %87, label %88, label %119

88:                                               ; preds = %4
  %89 = load i32, ptr %14, align 4, !tbaa !43
  %90 = icmp sgt i32 %89, 0
  br i1 %90, label %91, label %119

91:                                               ; preds = %88
  call void @llvm.lifetime.start.p0(i64 4, ptr %16) #12
  %92 = load ptr, ptr %11, align 8, !tbaa !77
  %93 = getelementptr inbounds nuw %struct.AVIStream, ptr %92, i32 0, i32 1
  %94 = load i64, ptr %93, align 8, !tbaa !122
  %95 = load ptr, ptr %11, align 8, !tbaa !77
  %96 = getelementptr inbounds nuw %struct.AVIStream, ptr %95, i32 0, i32 7
  %97 = getelementptr inbounds nuw %struct.AVIIndex, ptr %96, i32 0, i32 1
  %98 = load i64, ptr %97, align 8, !tbaa !123
  %99 = sub nsw i64 %94, %98
  %100 = trunc i64 %99 to i32
  store i32 %100, ptr %16, align 4, !tbaa !43
  %101 = load i32, ptr %16, align 4, !tbaa !43
  %102 = load i32, ptr %14, align 4, !tbaa !43
  %103 = urem i32 %101, %102
  %104 = icmp ugt i32 %103, 0
  br i1 %104, label %105, label %114

105:                                              ; preds = %91
  %106 = load ptr, ptr %11, align 8, !tbaa !77
  %107 = getelementptr inbounds nuw %struct.AVIStream, ptr %106, i32 0, i32 5
  %108 = load i32, ptr %107, align 4, !tbaa !151
  %109 = icmp ne i32 %108, 0
  br i1 %109, label %114, label %110

110:                                              ; preds = %105
  %111 = load ptr, ptr %5, align 8, !tbaa !4
  call void (ptr, ptr, ...) @avpriv_request_sample(ptr noundef %111, ptr noundef @.str.48)
  %112 = load ptr, ptr %11, align 8, !tbaa !77
  %113 = getelementptr inbounds nuw %struct.AVIStream, ptr %112, i32 0, i32 5
  store i32 1, ptr %113, align 4, !tbaa !151
  br label %114

114:                                              ; preds = %110, %105, %91
  %115 = load ptr, ptr %9, align 8, !tbaa !29
  %116 = load i32, ptr %16, align 4, !tbaa !43
  %117 = load i32, ptr %14, align 4, !tbaa !43
  %118 = udiv i32 %116, %117
  call void @avio_wl32(ptr noundef %115, i32 noundef %118)
  call void @llvm.lifetime.end.p0(i64 4, ptr %16) #12
  br label %125

119:                                              ; preds = %88, %4
  %120 = load ptr, ptr %9, align 8, !tbaa !29
  %121 = load ptr, ptr %11, align 8, !tbaa !77
  %122 = getelementptr inbounds nuw %struct.AVIStream, ptr %121, i32 0, i32 7
  %123 = getelementptr inbounds nuw %struct.AVIIndex, ptr %122, i32 0, i32 2
  %124 = load i32, ptr %123, align 8, !tbaa !120
  call void @avio_wl32(ptr noundef %120, i32 noundef %124)
  br label %125

125:                                              ; preds = %119, %114
  %126 = load ptr, ptr %9, align 8, !tbaa !29
  %127 = load i64, ptr %12, align 8, !tbaa !30
  %128 = call i64 @avio_seek(ptr noundef %126, i64 noundef %127, i32 noundef 0)
  call void @llvm.lifetime.end.p0(i64 4, ptr %15) #12
  call void @llvm.lifetime.end.p0(i64 4, ptr %14) #12
  call void @llvm.lifetime.end.p0(i64 4, ptr %13) #12
  call void @llvm.lifetime.end.p0(i64 8, ptr %12) #12
  call void @llvm.lifetime.end.p0(i64 8, ptr %11) #12
  call void @llvm.lifetime.end.p0(i64 8, ptr %10) #12
  call void @llvm.lifetime.end.p0(i64 8, ptr %9) #12
  ret void
}