; Function Attrs: nounwind uwtable
define internal fastcc void @update_odml_entry(ptr noundef %0, i32 noundef %1, i64 noundef %2, i32 noundef %3) unnamed_addr #0 {
  %5 = alloca i32, align 4
  %6 = alloca i32, align 4
  %7 = alloca i32, align 4
  %8 = getelementptr inbounds nuw i8, ptr %0, i64 32
  %9 = load ptr, ptr %8, align 8, !tbaa !24
  %10 = getelementptr inbounds nuw i8, ptr %0, i64 24
  %11 = load ptr, ptr %10, align 8, !tbaa !4
  %12 = getelementptr inbounds nuw i8, ptr %0, i64 48
  %13 = load ptr, ptr %12, align 8, !tbaa !36
  %14 = sext i32 %1 to i64
  %15 = getelementptr inbounds ptr, ptr %13, i64 %14
  %16 = load ptr, ptr %15, align 8, !tbaa !37
  %17 = getelementptr inbounds nuw i8, ptr %16, i64 24
  %18 = load ptr, ptr %17, align 8, !tbaa !39
  call void @llvm.lifetime.start.p0(i64 4, ptr nonnull %5) #10
  call void @llvm.lifetime.start.p0(i64 4, ptr nonnull %6) #10
  call void @llvm.lifetime.start.p0(i64 4, ptr nonnull %7) #10
  %19 = tail call i64 @avio_seek(ptr noundef %9, i64 noundef 0, i32 noundef 1) #10
  %20 = getelementptr inbounds nuw i8, ptr %18, i64 40
  %21 = load i64, ptr %20, align 8, !tbaa !111
  %22 = add nsw i64 %21, -8
  %23 = tail call i64 @avio_seek(ptr noundef %9, i64 noundef %22, i32 noundef 0) #10
  tail call void @avio_wl32(ptr noundef %9, i32 noundef 2019847785) #10
  %24 = tail call i64 @avio_skip(ptr noundef %9, i64 noundef 8) #10
  %25 = getelementptr inbounds nuw i8, ptr %11, i64 48
  %26 = load i32, ptr %25, align 8, !tbaa !33
  %27 = getelementptr inbounds nuw i8, ptr %18, i64 64
  %28 = load i32, ptr %27, align 8, !tbaa !125
  %29 = sub nsw i32 %26, %28
  tail call void @avio_wl32(ptr noundef %9, i32 noundef %29) #10
  %30 = load i32, ptr %25, align 8, !tbaa !33
  %31 = load i32, ptr %27, align 8, !tbaa !125
  %32 = sub nsw i32 %30, %31
  %33 = shl nsw i32 %32, 4
  %34 = sext i32 %33 to i64
  %35 = tail call i64 @avio_skip(ptr noundef %9, i64 noundef %34) #10
  tail call void @avio_wl64(ptr noundef %9, i64 noundef %2) #10
  tail call void @avio_wl32(ptr noundef %9, i32 noundef %3) #10
  %36 = load ptr, ptr %12, align 8, !tbaa !36
  %37 = getelementptr inbounds ptr, ptr %36, i64 %14
  %38 = load ptr, ptr %37, align 8, !tbaa !37
  call void @ff_parse_specific_params(ptr noundef %38, ptr noundef nonnull %5, ptr noundef nonnull %6, ptr noundef nonnull %7) #10
  %39 = load ptr, ptr %12, align 8, !tbaa !36
  %40 = getelementptr inbounds ptr, ptr %39, i64 %14
  %41 = load ptr, ptr %40, align 8, !tbaa !37
  %42 = getelementptr inbounds nuw i8, ptr %41, i64 16
  %43 = load ptr, ptr %42, align 8, !tbaa !54
  %44 = load i32, ptr %43, align 8, !tbaa !59
  %45 = icmp eq i32 %44, 1
  %46 = load i32, ptr %6, align 4
  %47 = icmp sgt i32 %46, 0
  %or.cond = select i1 %45, i1 %47, i1 false
  br i1 %or.cond, label %48, label %63

48:                                               ; preds = %4
  %49 = getelementptr inbounds nuw i8, ptr %18, i64 8
  %50 = load i64, ptr %49, align 8, !tbaa !46
  %51 = getelementptr inbounds nuw i8, ptr %18, i64 48
  %52 = load i64, ptr %51, align 8, !tbaa !50
  %53 = sub nsw i64 %50, %52
  %54 = trunc i64 %53 to i32
  %55 = urem i32 %54, %46
  %.not = icmp eq i32 %55, 0
  br i1 %.not, label %60, label %56

56:                                               ; preds = %48
  %57 = getelementptr inbounds nuw i8, ptr %18, i64 28
  %58 = load i32, ptr %57, align 4, !tbaa !132
  %.not35 = icmp eq i32 %58, 0
  br i1 %.not35, label %59, label %60

59:                                               ; preds = %56
  call void (ptr, ptr, ...) @avpriv_request_sample(ptr noundef nonnull %0, ptr noundef nonnull @.str.48) #10
  store i32 1, ptr %57, align 4, !tbaa !132
  %.pre = load i32, ptr %6, align 4, !tbaa !74
  br label %60

60:                                               ; preds = %59, %56, %48
  %61 = phi i32 [ %.pre, %59 ], [ %46, %56 ], [ %46, %48 ]
  %62 = udiv i32 %54, %61
  br label %66

63:                                               ; preds = %4
  %64 = getelementptr inbounds nuw i8, ptr %18, i64 56
  %65 = load i32, ptr %64, align 8, !tbaa !51
  br label %66

66:                                               ; preds = %63, %60
  %.sink = phi i32 [ %65, %63 ], [ %62, %60 ]
  call void @avio_wl32(ptr noundef %9, i32 noundef %.sink) #10
  %67 = call i64 @avio_seek(ptr noundef %9, i64 noundef %19, i32 noundef 0) #10
  call void @llvm.lifetime.end.p0(i64 4, ptr nonnull %7) #10
  call void @llvm.lifetime.end.p0(i64 4, ptr nonnull %6) #10
  call void @llvm.lifetime.end.p0(i64 4, ptr nonnull %5) #10
  ret void
}